; Function Attrs: nounwind uwtable
define void @PMIx_Regattr_free(ptr noundef captures(address_is_null) %0, i64 noundef %1) local_unnamed_addr #6 {
  %.not.i = icmp eq ptr %0, null
  br i1 %.not.i, label %pmix_bfrops_base_tma_regattr_free.exit, label %.preheader.i

.preheader.i:                                     ; preds = %2
  %.not2.i = icmp eq i64 %1, 0
  br i1 %.not2.i, label %._crit_edge.i, label %.lr.ph.i

._crit_edge.i:                                    ; preds = %pmix_bfrops_base_tma_regattr_destruct.exit.i, %.preheader.i
  tail call void @free(ptr noundef nonnull %0) #44
  br label %pmix_bfrops_base_tma_regattr_free.exit

.lr.ph.i:                                         ; preds = %.preheader.i, %pmix_bfrops_base_tma_regattr_destruct.exit.i
  %.01.i = phi i64 [ %13, %pmix_bfrops_base_tma_regattr_destruct.exit.i ], [ 0, %.preheader.i ]
  %3 = getelementptr inbounds nuw %struct.pmix_regattr_t, ptr %0, i64 %.01.i
  %4 = load ptr, ptr %3, align 8, !tbaa !54
  %.not11.i.i = icmp eq ptr %4, null
  br i1 %.not11.i.i, label %6, label %5

5:                                                ; preds = %.lr.ph.i
  tail call void @free(ptr noundef nonnull %4) #44
  store ptr null, ptr %3, align 8, !tbaa !54
  br label %6

6:                                                ; preds = %5, %.lr.ph.i
  %7 = getelementptr inbounds nuw i8, ptr %3, i64 528
  %8 = load ptr, ptr %7, align 8, !tbaa !56
  %.not12.i.i = icmp eq ptr %8, null
  br i1 %.not12.i.i, label %pmix_bfrops_base_tma_regattr_destruct.exit.i, label %.preheader.i.i.i

.preheader.i.i.i:                                 ; preds = %6
  %9 = load ptr, ptr %8, align 8, !tbaa !12
  %.not101.i.i.i = icmp eq ptr %9, null
  br i1 %.not101.i.i.i, label %pmix_bfrops_base_tma_argv_free.exit.i.i, label %.lr.ph.i.i.i

.lr.ph.i.i.i:                                     ; preds = %.preheader.i.i.i, %.lr.ph.i.i.i
  %10 = phi ptr [ %12, %.lr.ph.i.i.i ], [ %9, %.preheader.i.i.i ]
  %.02.i.i.i = phi ptr [ %11, %.lr.ph.i.i.i ], [ %8, %.preheader.i.i.i ]
  tail call void @free(ptr noundef nonnull %10) #44
  %11 = getelementptr inbounds nuw i8, ptr %.02.i.i.i, i64 8
  %12 = load ptr, ptr %11, align 8, !tbaa !12
  %.not10.i.i.i = icmp eq ptr %12, null
  br i1 %.not10.i.i.i, label %pmix_bfrops_base_tma_argv_free.exit.i.i, label %.lr.ph.i.i.i, !llvm.loop !19

pmix_bfrops_base_tma_argv_free.exit.i.i:          ; preds = %.lr.ph.i.i.i, %.preheader.i.i.i
  tail call void @free(ptr noundef nonnull %8) #44
  store ptr null, ptr %7, align 8, !tbaa !56
  br label %pmix_bfrops_base_tma_regattr_destruct.exit.i

pmix_bfrops_base_tma_regattr_destruct.exit.i:     ; preds = %pmix_bfrops_base_tma_argv_free.exit.i.i, %6
  %13 = add nuw i64 %.01.i, 1
  %exitcond.not.i = icmp eq i64 %13, %1
  br i1 %exitcond.not.i, label %._crit_edge.i, label %.lr.ph.i, !llvm.loop !135

pmix_bfrops_base_tma_regattr_free.exit:           ; preds = %2, %._crit_edge.i
  ret void
}